target datalayout = "e-m:e-p270:32:32-p271:32:32-p272:64:64-i64:64-i128:128-f80:128-n8:16:32:64-S128"
target triple = "x86_64-pc-linux-gnu"

%"class.google::protobuf::Message" = type { %"class.google::protobuf::MessageLite" }
%"class.google::protobuf::MessageLite" = type { ptr, %"class.google::protobuf::internal::InternalMetadata" }
%"class.google::protobuf::internal::InternalMetadata" = type { ptr }
%"class.google::protobuf::internal::HasBits" = type { [1 x i32] }
%"class.google::protobuf::internal::CachedSize" = type { %"struct.std::atomic" }
%"struct.std::atomic" = type { %"struct.std::__atomic_base" }
%"struct.std::__atomic_base" = type { i32 }
%"class.onnx::TensorProto_Segment" = type { %"class.google::protobuf::Message", %"class.google::protobuf::internal::HasBits", %"class.google::protobuf::internal::CachedSize", i64, i64 }
%"class.google::protobuf::Arena" = type { %"class.google::protobuf::internal::ArenaImpl", ptr, ptr, ptr, ptr }
%"class.google::protobuf::internal::ArenaImpl" = type { %"struct.std::atomic.41", %"struct.std::atomic.41", %"struct.std::atomic.43", ptr, i64, %"struct.google::protobuf::internal::ArenaImpl::Options" }
%"struct.std::atomic.41" = type { %"struct.std::__atomic_base.42" }
%"struct.std::__atomic_base.42" = type { ptr }
%"struct.std::atomic.43" = type { %"struct.std::__atomic_base.44" }
%"struct.std::__atomic_base.44" = type { i64 }
%"struct.google::protobuf::internal::ArenaImpl::Options" = type { i64, i64, ptr, i64, ptr, ptr }

@_ZTIN4onnx19TensorProto_SegmentE = dso_local constant { ptr, ptr, ptr } { ptr getelementptr inbounds (ptr, ptr @_ZTVN10__cxxabiv120__si_class_type_infoE, i64 2), ptr @_ZTSN4onnx19TensorProto_SegmentE, ptr @_ZTIN6google8protobuf7MessageE }, align 8
@_ZTVN6google8protobuf7MessageE = external unnamed_addr constant { [22 x ptr] }, align 8
@_ZTVN6google8protobuf11MessageLiteE = external unnamed_addr constant { [16 x ptr] }, align 8
@_ZN4onnx19TensorProto_SegmentC1EPN6google8protobuf5ArenaE = dso_local unnamed_addr alias void (ptr, ptr), ptr @_ZN4onnx19TensorProto_SegmentC2EPN6google8protobuf5ArenaE

; Function Attrs: mustprogress nounwind uwtable
define linkonce_odr dso_local void @_ZNSt13__atomic_baseIiEC2Ei(ptr noundef nonnull align 4 dereferenceable(4) %0, i32 noundef %1) unnamed_addr #5 comdat align 2 {
  %3 = alloca ptr, align 8
  %4 = alloca i32, align 4
  store ptr %0, ptr %3, align 8, !tbaa !343
  store i32 %1, ptr %4, align 4, !tbaa !12
  %5 = load ptr, ptr %3, align 8
  %6 = getelementptr inbounds nuw %"struct.std::__atomic_base", ptr %5, i32 0, i32 0
  %7 = load i32, ptr %4, align 4, !tbaa !12
  store i32 %7, ptr %6, align 4, !tbaa !416
  ret void
}

; Function Attrs: mustprogress nounwind uwtable
define linkonce_odr dso_local void @_ZN6google8protobuf8internal16InternalMetadataC2EPNS0_5ArenaE(ptr noundef nonnull align 8 dereferenceable(8) %0, ptr noundef %1) unnamed_addr #5 comdat align 2 {
  %3 = alloca ptr, align 8
  %4 = alloca ptr, align 8
  store ptr %0, ptr %3, align 8, !tbaa !71
  store ptr %1, ptr %4, align 8, !tbaa !42
  %5 = load ptr, ptr %3, align 8
  %6 = getelementptr inbounds nuw %"class.google::protobuf::internal::InternalMetadata", ptr %5, i32 0, i32 0
  %7 = load ptr, ptr %4, align 8, !tbaa !42
  store ptr %7, ptr %6, align 8, !tbaa !413
  ret void
}

; Function Attrs: mustprogress nounwind uwtable
define linkonce_odr dso_local void @_ZNSt6atomicIiEC2Ei(ptr noundef nonnull align 4 dereferenceable(4) %0, i32 noundef %1) unnamed_addr #5 comdat align 2 {
  %3 = alloca ptr, align 8
  %4 = alloca i32, align 4
  store ptr %0, ptr %3, align 8, !tbaa !414
  store i32 %1, ptr %4, align 4, !tbaa !12
  %5 = load ptr, ptr %3, align 8
  %6 = load i32, ptr %4, align 4, !tbaa !12
  call void @_ZNSt13__atomic_baseIiEC2Ei(ptr noundef nonnull align 4 dereferenceable(4) %5, i32 noundef %6) #3
  ret void
}

; Function Attrs: alwaysinline mustprogress nounwind uwtable
define linkonce_odr dso_local void @_ZN6google8protobuf8internal7HasBitsILm1EE5ClearEv(ptr noundef nonnull align 4 dereferenceable(4) %0) #14 comdat align 2 {
  %2 = alloca ptr, align 8
  store ptr %0, ptr %2, align 8, !tbaa !47
  %3 = load ptr, ptr %2, align 8
  %4 = getelementptr inbounds nuw %"class.google::protobuf::internal::HasBits", ptr %3, i32 0, i32 0
  %5 = getelementptr inbounds [1 x i32], ptr %4, i64 0, i64 0
  call void @llvm.memset.p0.i64(ptr align 4 %5, i8 0, i64 4, i1 false)
  ret void
}

; Function Attrs: inlinehint mustprogress uwtable
define linkonce_odr dso_local void @_ZN6google8protobuf11MessageLiteC2EPNS0_5ArenaE(ptr noundef nonnull align 8 dereferenceable(16) %0, ptr noundef %1) unnamed_addr #7 comdat align 2 {
  %3 = alloca ptr, align 8
  %4 = alloca ptr, align 8
  store ptr %0, ptr %3, align 8, !tbaa !67
  store ptr %1, ptr %4, align 8, !tbaa !42
  %5 = load ptr, ptr %3, align 8
  store ptr getelementptr inbounds inrange(-16, 112) ({ [16 x ptr] }, ptr @_ZTVN6google8protobuf11MessageLiteE, i32 0, i32 0, i32 2), ptr %5, align 8, !tbaa !43
  %6 = getelementptr inbounds nuw %"class.google::protobuf::MessageLite", ptr %5, i32 0, i32 1
  %7 = load ptr, ptr %4, align 8, !tbaa !42
  call void @_ZN6google8protobuf8internal16InternalMetadataC2EPNS0_5ArenaE(ptr noundef nonnull align 8 dereferenceable(8) %6, ptr noundef %7)
  ret void
}

; Function Attrs: inlinehint mustprogress uwtable
define linkonce_odr dso_local void @_ZNK6google8protobuf5Arena9AllocHookEPKSt9type_infom(ptr noundef nonnull align 8 dereferenceable(120) %0, ptr noundef %1, i64 noundef %2) #7 comdat align 2 {
  %4 = alloca ptr, align 8
  %5 = alloca ptr, align 8
  %6 = alloca i64, align 8
  store ptr %0, ptr %4, align 8, !tbaa !42
  store ptr %1, ptr %5, align 8, !tbaa !432
  store i64 %2, ptr %6, align 8, !tbaa !110
  %7 = load ptr, ptr %4, align 8
  %8 = getelementptr inbounds nuw %"class.google::protobuf::Arena", ptr %7, i32 0, i32 4
  %9 = load ptr, ptr %8, align 8, !tbaa !434
  %10 = icmp ne ptr %9, null
  %11 = zext i1 %10 to i64
  %12 = call i64 @llvm.expect.i64(i64 %11, i64 0)
  %13 = icmp ne i64 %12, 0
  br i1 %13, label %14, label %17

14:                                               ; preds = %3
  %15 = load ptr, ptr %5, align 8, !tbaa !432
  %16 = load i64, ptr %6, align 8, !tbaa !110
  call void @_ZNK6google8protobuf5Arena17OnArenaAllocationEPKSt9type_infom(ptr noundef nonnull align 8 dereferenceable(120) %7, ptr noundef %15, i64 noundef %16)
  br label %17

17:                                               ; preds = %14, %3
  ret void
}

; Function Attrs: inlinehint mustprogress nounwind uwtable
define linkonce_odr dso_local noundef i64 @_ZN6google8protobuf8internal10AlignUpTo8Em(i64 noundef %0) #6 comdat {
  %2 = alloca i64, align 8
  store i64 %0, ptr %2, align 8, !tbaa !110
  %3 = load i64, ptr %2, align 8, !tbaa !110
  %4 = add i64 %3, 7
  %5 = and i64 %4, -8
  ret i64 %5
}

; Function Attrs: mustprogress nounwind uwtable
define linkonce_odr dso_local void @_ZN6google8protobuf11MessageLiteD2Ev(ptr noundef nonnull align 8 dereferenceable(16) %0) unnamed_addr #5 comdat align 2 {
  %2 = alloca ptr, align 8
  store ptr %0, ptr %2, align 8, !tbaa !67
  ret void
}

; Function Attrs: inlinehint mustprogress nounwind uwtable
define linkonce_odr dso_local void @_ZN4onnx19TensorProto_Segment17RegisterArenaDtorEPN6google8protobuf5ArenaE(ptr noundef nonnull align 8 dereferenceable(40) %0, ptr noundef %1) #6 comdat align 2 {
  %3 = alloca ptr, align 8
  %4 = alloca ptr, align 8
  store ptr %0, ptr %3, align 8, !tbaa !305
  store ptr %1, ptr %4, align 8, !tbaa !42
  ret void
}

; Function Attrs: inlinehint mustprogress nounwind uwtable
define linkonce_odr dso_local void @_ZN4onnx19TensorProto_Segment10SharedCtorEv(ptr noundef nonnull align 8 dereferenceable(40) %0) #6 comdat align 2 {
  %2 = alloca ptr, align 8
  store ptr %0, ptr %2, align 8, !tbaa !305
  %3 = load ptr, ptr %2, align 8
  %4 = getelementptr inbounds nuw %"class.onnx::TensorProto_Segment", ptr %3, i32 0, i32 3
  %5 = getelementptr inbounds nuw %"class.onnx::TensorProto_Segment", ptr %3, i32 0, i32 4
  %6 = getelementptr inbounds nuw %"class.onnx::TensorProto_Segment", ptr %3, i32 0, i32 3
  %7 = ptrtoint ptr %5 to i64
  %8 = ptrtoint ptr %6 to i64
  %9 = sub i64 %7, %8
  %10 = add i64 %9, 8
  call void @llvm.memset.p0.i64(ptr align 8 %4, i8 0, i64 %10, i1 false)
  ret void
}

; Function Attrs: inlinehint mustprogress nounwind uwtable
define linkonce_odr dso_local void @_ZN6google8protobuf8internal10CachedSizeC2Ev(ptr noundef nonnull align 4 dereferenceable(4) %0) unnamed_addr #6 comdat align 2 {
  %2 = alloca ptr, align 8
  store ptr %0, ptr %2, align 8, !tbaa !49
  %3 = load ptr, ptr %2, align 8
  %4 = getelementptr inbounds nuw %"class.google::protobuf::internal::CachedSize", ptr %3, i32 0, i32 0
  call void @_ZNSt6atomicIiEC2Ei(ptr noundef nonnull align 4 dereferenceable(4) %4, i32 noundef 0) #3
  ret void
}

; Function Attrs: alwaysinline mustprogress uwtable
define linkonce_odr dso_local void @_ZN6google8protobuf8internal7HasBitsILm1EEC2Ev(ptr noundef nonnull align 4 dereferenceable(4) %0) unnamed_addr #8 comdat align 2 {
  %2 = alloca ptr, align 8
  store ptr %0, ptr %2, align 8, !tbaa !47
  %3 = load ptr, ptr %2, align 8
  call void @_ZN6google8protobuf8internal7HasBitsILm1EE5ClearEv(ptr noundef nonnull align 4 dereferenceable(4) %3)
  ret void
}

; Function Attrs: inlinehint mustprogress uwtable
define linkonce_odr dso_local void @_ZN6google8protobuf7MessageC2EPNS0_5ArenaE(ptr noundef nonnull align 8 dereferenceable(16) %0, ptr noundef %1) unnamed_addr #7 comdat align 2 {
  %3 = alloca ptr, align 8
  %4 = alloca ptr, align 8
  store ptr %0, ptr %3, align 8, !tbaa !45
  store ptr %1, ptr %4, align 8, !tbaa !42
  %5 = load ptr, ptr %3, align 8
  %6 = load ptr, ptr %4, align 8, !tbaa !42
  call void @_ZN6google8protobuf11MessageLiteC2EPNS0_5ArenaE(ptr noundef nonnull align 8 dereferenceable(16) %5, ptr noundef %6)
  store ptr getelementptr inbounds inrange(-16, 160) ({ [22 x ptr] }, ptr @_ZTVN6google8protobuf7MessageE, i32 0, i32 0, i32 2), ptr %5, align 8, !tbaa !43
  ret void
}

; Function Attrs: mustprogress uwtable
define linkonce_odr dso_local noundef ptr @_ZN6google8protobuf5Arena14InternalHelperIN4onnx19TensorProto_SegmentEE9ConstructIJPS1_EEEPS4_PvDpOT_(ptr noundef %0, ptr noundef nonnull align 8 dereferenceable(8) %1) #4 comdat align 2 {
  %3 = alloca ptr, align 8
  %4 = alloca ptr, align 8
  store ptr %0, ptr %3, align 8, !tbaa !4
  store ptr %1, ptr %4, align 8, !tbaa !678
  %5 = load ptr, ptr %3, align 8, !tbaa !4
  %6 = load ptr, ptr %4, align 8, !tbaa !678
  %7 = load ptr, ptr %6, align 8, !tbaa !42
  call void @_ZN4onnx19TensorProto_SegmentC1EPN6google8protobuf5ArenaE(ptr noundef nonnull align 8 dereferenceable(40) %5, ptr noundef %7)
  ret ptr %5
}

; Function Attrs: alwaysinline mustprogress uwtable
define linkonce_odr dso_local noundef ptr @_ZN6google8protobuf5Arena16AllocateInternalIN4onnx19TensorProto_SegmentEEEPvb(ptr noundef nonnull align 8 dereferenceable(120) %0, i1 noundef zeroext %1) #8 comdat align 2 {
  %3 = alloca ptr, align 8
  %4 = alloca ptr, align 8
  %5 = alloca i8, align 1
  %6 = alloca i64, align 8
  %7 = alloca i32, align 4
  store ptr %0, ptr %4, align 8, !tbaa !42
  %8 = zext i1 %1 to i8
  store i8 %8, ptr %5, align 1, !tbaa !8
  %9 = load ptr, ptr %4, align 8
  call void @llvm.lifetime.start.p0(i64 8, ptr %6) #3
  %10 = call noundef i64 @_ZN6google8protobuf8internal10AlignUpTo8Em(i64 noundef 40)
  store i64 %10, ptr %6, align 8, !tbaa !110
  %11 = load i64, ptr %6, align 8, !tbaa !110
  call void @_ZNK6google8protobuf5Arena9AllocHookEPKSt9type_infom(ptr noundef nonnull align 8 dereferenceable(120) %9, ptr noundef @_ZTIN4onnx19TensorProto_SegmentE, i64 noundef %11)
  %12 = load i8, ptr %5, align 1, !tbaa !8, !range !77, !noundef !78
  %13 = trunc i8 %12 to i1
  br i1 %13, label %14, label %17

14:                                               ; preds = %2
  %15 = load i64, ptr %6, align 8, !tbaa !110
  %16 = call noundef ptr @_ZN6google8protobuf5Arena21AllocateAlignedNoHookEm(ptr noundef nonnull align 8 dereferenceable(120) %9, i64 noundef %15)
  store ptr %16, ptr %3, align 8
  store i32 1, ptr %7, align 4
  br label %21

17:                                               ; preds = %2
  %18 = getelementptr inbounds nuw %"class.google::protobuf::Arena", ptr %9, i32 0, i32 0
  %19 = load i64, ptr %6, align 8, !tbaa !110
  %20 = call noundef ptr @_ZN6google8protobuf8internal9ArenaImpl28AllocateAlignedAndAddCleanupEmPFvPvE(ptr noundef nonnull align 8 dereferenceable(88) %18, i64 noundef %19, ptr noundef @_ZN6google8protobuf8internal21arena_destruct_objectIN4onnx19TensorProto_SegmentEEEvPv)
  store ptr %20, ptr %3, align 8
  store i32 1, ptr %7, align 4
  br label %21

21:                                               ; preds = %17, %14
  call void @llvm.lifetime.end.p0(i64 8, ptr %6) #3
  %22 = load ptr, ptr %3, align 8
  ret ptr %22
}

; Function Attrs: mustprogress uwtable
define dso_local void @_ZN4onnx19TensorProto_SegmentC2EPN6google8protobuf5ArenaE(ptr noundef nonnull align 8 dereferenceable(40) %0, ptr noundef %1) unnamed_addr #4 align 2 personality ptr @__gxx_personality_v0 {
  %3 = alloca ptr, align 8
  %4 = alloca ptr, align 8
  %5 = alloca ptr, align 8
  %6 = alloca i32, align 4
  store ptr %0, ptr %3, align 8, !tbaa !305
  store ptr %1, ptr %4, align 8, !tbaa !42
  %7 = load ptr, ptr %3, align 8
  %8 = load ptr, ptr %4, align 8, !tbaa !42
  call void @_ZN6google8protobuf7MessageC2EPNS0_5ArenaE(ptr noundef nonnull align 8 dereferenceable(16) %7, ptr noundef %8)
  store ptr getelementptr inbounds inrange(-16, 160) ({ [22 x ptr] }, ptr @_ZTVN4onnx19TensorProto_SegmentE, i32 0, i32 0, i32 2), ptr %7, align 8, !tbaa !43
  %9 = getelementptr inbounds nuw %"class.onnx::TensorProto_Segment", ptr %7, i32 0, i32 1
  invoke void @_ZN6google8protobuf8internal7HasBitsILm1EEC2Ev(ptr noundef nonnull align 4 dereferenceable(4) %9)
          to label %10 unwind label %15

10:                                               ; preds = %2
  %11 = getelementptr inbounds nuw %"class.onnx::TensorProto_Segment", ptr %7, i32 0, i32 2
  call void @_ZN6google8protobuf8internal10CachedSizeC2Ev(ptr noundef nonnull align 4 dereferenceable(4) %11) #3
  invoke void @_ZN4onnx19TensorProto_Segment10SharedCtorEv(ptr noundef nonnull align 8 dereferenceable(40) %7)
          to label %12 unwind label %15

12:                                               ; preds = %10
  %13 = load ptr, ptr %4, align 8, !tbaa !42
  invoke void @_ZN4onnx19TensorProto_Segment17RegisterArenaDtorEPN6google8protobuf5ArenaE(ptr noundef nonnull align 8 dereferenceable(40) %7, ptr noundef %13)
          to label %14 unwind label %15

14:                                               ; preds = %12
  ret void

15:                                               ; preds = %12, %10, %2
  %16 = landingpad { ptr, i32 }
          cleanup
  %17 = extractvalue { ptr, i32 } %16, 0
  store ptr %17, ptr %5, align 8
  %18 = extractvalue { ptr, i32 } %16, 1
  store i32 %18, ptr %6, align 4
  call void @_ZN6google8protobuf11MessageLiteD2Ev(ptr noundef nonnull align 8 dereferenceable(16) %7) #3
  br label %19

19:                                               ; preds = %15
  %20 = load ptr, ptr %5, align 8
  %21 = load i32, ptr %6, align 4
  %22 = insertvalue { ptr, i32 } poison, ptr %20, 0
  %23 = insertvalue { ptr, i32 } %22, i32 %21, 1
  resume { ptr, i32 } %23
}

; Function Attrs: alwaysinline mustprogress uwtable
define linkonce_odr dso_local noundef ptr @_ZN6google8protobuf5Arena15DoCreateMessageIN4onnx19TensorProto_SegmentEJEEEPT_DpOT0_(ptr noundef nonnull align 8 dereferenceable(120) %0) #8 comdat align 2 {
  %2 = alloca ptr, align 8
  %3 = alloca ptr, align 8
  store ptr %0, ptr %2, align 8, !tbaa !42
  %4 = load ptr, ptr %2, align 8
  %5 = call noundef ptr @_ZN6google8protobuf5Arena16AllocateInternalIN4onnx19TensorProto_SegmentEEEPvb(ptr noundef nonnull align 8 dereferenceable(120) %4, i1 noundef zeroext true)
  call void @llvm.lifetime.start.p0(i64 8, ptr %3) #3
  store ptr %4, ptr %3, align 8, !tbaa !42
  %6 = call noundef ptr @_ZN6google8protobuf5Arena14InternalHelperIN4onnx19TensorProto_SegmentEE9ConstructIJPS1_EEEPS4_PvDpOT_(ptr noundef %5, ptr noundef nonnull align 8 dereferenceable(8) %3)
  call void @llvm.lifetime.end.p0(i64 8, ptr %3) #3
  ret ptr %6
}

; Function Attrs: inlinehint mustprogress uwtable
define linkonce_odr dso_local void @_ZN4onnx19TensorProto_SegmentC2Ev(ptr noundef nonnull align 8 dereferenceable(40) %0) unnamed_addr #7 comdat align 2 {
  %2 = alloca ptr, align 8
  store ptr %0, ptr %2, align 8, !tbaa !305
  %3 = load ptr, ptr %2, align 8
  call void @_ZN4onnx19TensorProto_SegmentC2EPN6google8protobuf5ArenaE(ptr noundef nonnull align 8 dereferenceable(40) %3, ptr noundef null)
  ret void
}

; Function Attrs: alwaysinline mustprogress uwtable
define linkonce_odr dso_local noundef ptr @_ZN6google8protobuf5Arena21CreateMessageInternalIN4onnx19TensorProto_SegmentEEEPT_PS1_(ptr noundef %0) #8 comdat align 2 personality ptr @__gxx_personality_v0 {
  %2 = alloca ptr, align 8
  %3 = alloca ptr, align 8
  %4 = alloca ptr, align 8
  %5 = alloca i32, align 4
  store ptr %0, ptr %3, align 8, !tbaa !42
  %6 = load ptr, ptr %3, align 8, !tbaa !42
  %7 = icmp eq ptr %6, null
  br i1 %7, label %8, label %15

8:                                                ; preds = %1
  %9 = call noalias noundef nonnull ptr @_Znwm(i64 noundef 40) #21
  invoke void @_ZN4onnx19TensorProto_SegmentC2Ev(ptr noundef nonnull align 8 dereferenceable(40) %9)
          to label %10 unwind label %11

10:                                               ; preds = %8
  store ptr %9, ptr %2, align 8
  br label %18

11:                                               ; preds = %8
  %12 = landingpad { ptr, i32 }
          cleanup
  %13 = extractvalue { ptr, i32 } %12, 0
  store ptr %13, ptr %4, align 8
  %14 = extractvalue { ptr, i32 } %12, 1
  store i32 %14, ptr %5, align 4
  call void @_ZdlPv(ptr noundef %9) #22
  br label %20

15:                                               ; preds = %1
  %16 = load ptr, ptr %3, align 8, !tbaa !42
  %17 = call noundef ptr @_ZN6google8protobuf5Arena15DoCreateMessageIN4onnx19TensorProto_SegmentEJEEEPT_DpOT0_(ptr noundef nonnull align 8 dereferenceable(120) %16)
  store ptr %17, ptr %2, align 8
  br label %18

18:                                               ; preds = %15, %10
  %19 = load ptr, ptr %2, align 8
  ret ptr %19

20:                                               ; preds = %11
  %21 = load ptr, ptr %4, align 8
  %22 = load i32, ptr %5, align 4
  %23 = insertvalue { ptr, i32 } poison, ptr %21, 0
  %24 = insertvalue { ptr, i32 } %23, i32 %22, 1
  resume { ptr, i32 } %24
}

; Function Attrs: mustprogress noinline uwtable
define dso_local noundef ptr @_ZN6google8protobuf5Arena18CreateMaybeMessageIN4onnx19TensorProto_SegmentEJEEEPT_PS1_DpOT0_(ptr noundef %0) #17 align 2 {
  %2 = alloca ptr, align 8
  store ptr %0, ptr %2, align 8, !tbaa !42
  %3 = load ptr, ptr %2, align 8, !tbaa !42
  %4 = call noundef ptr @_ZN6google8protobuf5Arena21CreateMessageInternalIN4onnx19TensorProto_SegmentEEEPT_PS1_(ptr noundef %3)
  ret ptr %4
}