; Function Attrs: mustprogress noinline uwtable
define dso_local noundef ptr @_ZN6google8protobuf5Arena18CreateMaybeMessageIN4onnx19TensorProto_SegmentEJEEEPT_PS1_DpOT0_(ptr noundef %0) local_unnamed_addr #18 align 2 personality ptr @__gxx_personality_v0 {
  %2 = icmp eq ptr %0, null
  br i1 %2, label %3, label %5

3:                                                ; preds = %1
  %4 = tail call noalias noundef nonnull dereferenceable(40) ptr @_Znwm(i64 noundef 40) #25
  br label %_ZN6google8protobuf5Arena21CreateMessageInternalIN4onnx19TensorProto_SegmentEEEPT_PS1_.exit

5:                                                ; preds = %1
  %6 = getelementptr inbounds nuw i8, ptr %0, i64 112
  %7 = load ptr, ptr %6, align 8, !tbaa !132
  %.not.i = icmp eq ptr %7, null
  br i1 %.not.i, label %_ZNK6google8protobuf5Arena9AllocHookEPKSt9type_infom.exit, label %8, !prof !11

8:                                                ; preds = %5
  tail call void @_ZNK6google8protobuf5Arena17OnArenaAllocationEPKSt9type_infom(ptr noundef nonnull align 8 dereferenceable(120) %0, ptr noundef nonnull @_ZTIN4onnx19TensorProto_SegmentE, i64 noundef 40)
  br label %_ZNK6google8protobuf5Arena9AllocHookEPKSt9type_infom.exit

_ZNK6google8protobuf5Arena9AllocHookEPKSt9type_infom.exit: ; preds = %5, %8
  %9 = tail call noundef ptr @_ZN6google8protobuf5Arena21AllocateAlignedNoHookEm(ptr noundef nonnull align 8 dereferenceable(120) %0, i64 noundef 40)
  br label %_ZN6google8protobuf5Arena21CreateMessageInternalIN4onnx19TensorProto_SegmentEEEPT_PS1_.exit

_ZN6google8protobuf5Arena21CreateMessageInternalIN4onnx19TensorProto_SegmentEEEPT_PS1_.exit: ; preds = %3, %_ZNK6google8protobuf5Arena9AllocHookEPKSt9type_infom.exit
  %.sink5 = phi ptr [ %4, %3 ], [ %9, %_ZNK6google8protobuf5Arena9AllocHookEPKSt9type_infom.exit ]
  %.sink3 = phi ptr [ null, %3 ], [ %0, %_ZNK6google8protobuf5Arena9AllocHookEPKSt9type_infom.exit ]
  %10 = getelementptr inbounds nuw i8, ptr %.sink5, i64 8
  store ptr %.sink3, ptr %10, align 8, !tbaa !4
  store ptr getelementptr inbounds nuw inrange(-16, 160) (i8, ptr @_ZTVN4onnx19TensorProto_SegmentE, i64 16), ptr %.sink5, align 8, !tbaa !9
  %11 = getelementptr inbounds nuw i8, ptr %.sink5, i64 16
  tail call void @llvm.memset.p0.i64(ptr noundef nonnull align 8 dereferenceable(24) %11, i8 0, i64 24, i1 false)
  ret ptr %.sink5
}